; Function Attrs: nounwind uwtable
define i32 @Fraig_ManCountExors(ptr noundef readonly captures(none) %0) local_unnamed_addr #0 {
  %2 = getelementptr inbounds nuw i8, ptr %0, i64 8
  %3 = load ptr, ptr %2, align 8
  %4 = getelementptr inbounds nuw i8, ptr %3, i64 4
  %5 = load i32, ptr %4, align 4
  %6 = icmp sgt i32 %5, 0
  br i1 %6, label %.lr.ph, label %._crit_edge

.lr.ph:                                           ; preds = %1, %Fraig_NodeIsExorType.exit
  %indvars.iv = phi i64 [ %indvars.iv.next, %Fraig_NodeIsExorType.exit ], [ 0, %1 ]
  %7 = phi ptr [ %58, %Fraig_NodeIsExorType.exit ], [ %3, %1 ]
  %.08 = phi i32 [ %57, %Fraig_NodeIsExorType.exit ], [ 0, %1 ]
  %8 = getelementptr inbounds nuw i8, ptr %7, i64 8
  %9 = load ptr, ptr %8, align 8
  %10 = getelementptr inbounds nuw ptr, ptr %9, i64 %indvars.iv
  %11 = load ptr, ptr %10, align 8
  %12 = ptrtoint ptr %11 to i64
  %13 = and i64 %12, -2
  %14 = inttoptr i64 %13 to ptr
  %15 = tail call i32 @Fraig_NodeIsAnd(ptr noundef %14) #15
  %.not.i = icmp eq i32 %15, 0
  br i1 %.not.i, label %Fraig_NodeIsExorType.exit, label %16

16:                                               ; preds = %.lr.ph
  %17 = getelementptr inbounds nuw i8, ptr %14, i64 32
  %18 = load ptr, ptr %17, align 8
  %19 = tail call i32 @Fraig_NodeIsAnd(ptr noundef %18) #15
  %.not12.i = icmp eq i32 %19, 0
  br i1 %.not12.i, label %Fraig_NodeIsExorType.exit, label %20

20:                                               ; preds = %16
  %21 = load ptr, ptr %17, align 8
  %22 = ptrtoint ptr %21 to i64
  %23 = and i64 %22, 1
  %.not13.i = icmp eq i64 %23, 0
  br i1 %.not13.i, label %Fraig_NodeIsExorType.exit, label %24

24:                                               ; preds = %20
  %25 = getelementptr inbounds nuw i8, ptr %14, i64 40
  %26 = load ptr, ptr %25, align 8
  %27 = tail call i32 @Fraig_NodeIsAnd(ptr noundef %26) #15
  %.not14.i = icmp eq i32 %27, 0
  br i1 %.not14.i, label %Fraig_NodeIsExorType.exit, label %28

28:                                               ; preds = %24
  %29 = load ptr, ptr %25, align 8
  %30 = ptrtoint ptr %29 to i64
  %31 = and i64 %30, 1
  %.not15.i = icmp eq i64 %31, 0
  br i1 %.not15.i, label %Fraig_NodeIsExorType.exit, label %32

32:                                               ; preds = %28
  %33 = load ptr, ptr %17, align 8
  %34 = ptrtoint ptr %33 to i64
  %35 = and i64 %34, -2
  %36 = inttoptr i64 %35 to ptr
  %37 = and i64 %30, -2
  %38 = inttoptr i64 %37 to ptr
  %39 = getelementptr inbounds nuw i8, ptr %36, i64 32
  %40 = load ptr, ptr %39, align 8
  %41 = getelementptr inbounds nuw i8, ptr %38, i64 32
  %42 = load ptr, ptr %41, align 8
  %43 = ptrtoint ptr %42 to i64
  %44 = xor i64 %43, 1
  %45 = inttoptr i64 %44 to ptr
  %46 = icmp eq ptr %40, %45
  br i1 %46, label %47, label %Fraig_NodeIsExorType.exit

47:                                               ; preds = %32
  %48 = getelementptr inbounds nuw i8, ptr %36, i64 40
  %49 = load ptr, ptr %48, align 8
  %50 = getelementptr inbounds nuw i8, ptr %38, i64 40
  %51 = load ptr, ptr %50, align 8
  %52 = ptrtoint ptr %51 to i64
  %53 = xor i64 %52, 1
  %54 = inttoptr i64 %53 to ptr
  %55 = icmp eq ptr %49, %54
  %56 = zext i1 %55 to i32
  br label %Fraig_NodeIsExorType.exit

Fraig_NodeIsExorType.exit:                        ; preds = %.lr.ph, %16, %20, %24, %28, %32, %47
  %.0.i = phi i32 [ 0, %.lr.ph ], [ 0, %20 ], [ 0, %16 ], [ 0, %28 ], [ 0, %24 ], [ 0, %32 ], [ %56, %47 ]
  %57 = add nuw nsw i32 %.0.i, %.08
  %indvars.iv.next = add nuw nsw i64 %indvars.iv, 1
  %58 = load ptr, ptr %2, align 8
  %59 = getelementptr inbounds nuw i8, ptr %58, i64 4
  %60 = load i32, ptr %59, align 4
  %61 = sext i32 %60 to i64
  %62 = icmp slt i64 %indvars.iv.next, %61
  br i1 %62, label %.lr.ph, label %._crit_edge, !llvm.loop !19

._crit_edge:                                      ; preds = %Fraig_NodeIsExorType.exit, %1
  %.0.lcssa = phi i32 [ 0, %1 ], [ %57, %Fraig_NodeIsExorType.exit ]
  ret i32 %.0.lcssa
}